target datalayout = "e-m:e-p270:32:32-p271:32:32-p272:64:64-i64:64-i128:128-f80:128-n8:16:32:64-S128"
target triple = "x86_64-pc-linux-gnu"

%"struct.Luau::FValue" = type { i8, i8, ptr, ptr }
%struct.lua_State = type { i8, i8, i8, i8, i8, i8, i8, ptr, ptr, ptr, ptr, ptr, ptr, ptr, ptr, i32, i32, i16, i16, i32, ptr, ptr, ptr, ptr, ptr }
%struct.CallInfo = type { ptr, ptr, ptr, ptr, i32, i32 }
%struct.lua_TValue = type { %union.Value, [1 x i32], i32 }
%union.Value = type { ptr }
%struct.UpVal = type { i8, i8, i8, i8, ptr, %union.anon.3 }
%union.anon.3 = type { %struct.anon.4 }
%struct.anon.4 = type { ptr, ptr, ptr }

@_ZN6DFFlag14LuauStackLimitE = dso_local global %"struct.Luau::FValue" zeroinitializer, align 8
@_ZN6DFFlag19LuauPopIncompleteCiE = dso_local global %"struct.Luau::FValue" zeroinitializer, align 8

; Function Attrs: mustprogress nounwind uwtable
define internal void @_ZL12correctstackP9lua_StateP10lua_TValue(ptr noundef %0, ptr noundef %1) #1 {
  %3 = alloca ptr, align 8
  %4 = alloca ptr, align 8
  %5 = alloca ptr, align 8
  %6 = alloca ptr, align 8
  store ptr %0, ptr %3, align 8, !tbaa !20
  store ptr %1, ptr %4, align 8, !tbaa !53
  %7 = load ptr, ptr %3, align 8, !tbaa !20
  %8 = getelementptr inbounds nuw %struct.lua_State, ptr %7, i32 0, i32 7
  %9 = load ptr, ptr %8, align 8, !tbaa !51
  %10 = load ptr, ptr %4, align 8, !tbaa !53
  %11 = ptrtoint ptr %9 to i64
  %12 = ptrtoint ptr %10 to i64
  %13 = sub i64 %11, %12
  %14 = sdiv exact i64 %13, 16
  %15 = load ptr, ptr %3, align 8, !tbaa !20
  %16 = getelementptr inbounds nuw %struct.lua_State, ptr %15, i32 0, i32 12
  %17 = load ptr, ptr %16, align 8, !tbaa !52
  %18 = getelementptr inbounds %struct.lua_TValue, ptr %17, i64 %14
  %19 = load ptr, ptr %3, align 8, !tbaa !20
  %20 = getelementptr inbounds nuw %struct.lua_State, ptr %19, i32 0, i32 7
  store ptr %18, ptr %20, align 8, !tbaa !51
  call void @llvm.lifetime.start.p0(i64 8, ptr %5) #15
  %21 = load ptr, ptr %3, align 8, !tbaa !20
  %22 = getelementptr inbounds nuw %struct.lua_State, ptr %21, i32 0, i32 21
  %23 = load ptr, ptr %22, align 8, !tbaa !61
  store ptr %23, ptr %5, align 8, !tbaa !62
  br label %24

24:                                               ; preds = %43, %2
  %25 = load ptr, ptr %5, align 8, !tbaa !62
  %26 = icmp ne ptr %25, null
  br i1 %26, label %28, label %27

27:                                               ; preds = %24
  call void @llvm.lifetime.end.p0(i64 8, ptr %5) #15
  br label %48

28:                                               ; preds = %24
  %29 = load ptr, ptr %5, align 8, !tbaa !62
  %30 = getelementptr inbounds nuw %struct.UpVal, ptr %29, i32 0, i32 4
  %31 = load ptr, ptr %30, align 8, !tbaa !63
  %32 = load ptr, ptr %4, align 8, !tbaa !53
  %33 = ptrtoint ptr %31 to i64
  %34 = ptrtoint ptr %32 to i64
  %35 = sub i64 %33, %34
  %36 = sdiv exact i64 %35, 16
  %37 = load ptr, ptr %3, align 8, !tbaa !20
  %38 = getelementptr inbounds nuw %struct.lua_State, ptr %37, i32 0, i32 12
  %39 = load ptr, ptr %38, align 8, !tbaa !52
  %40 = getelementptr inbounds %struct.lua_TValue, ptr %39, i64 %36
  %41 = load ptr, ptr %5, align 8, !tbaa !62
  %42 = getelementptr inbounds nuw %struct.UpVal, ptr %41, i32 0, i32 4
  store ptr %40, ptr %42, align 8, !tbaa !63
  br label %43

43:                                               ; preds = %28
  %44 = load ptr, ptr %5, align 8, !tbaa !62
  %45 = getelementptr inbounds nuw %struct.UpVal, ptr %44, i32 0, i32 5
  %46 = getelementptr inbounds nuw %struct.anon.4, ptr %45, i32 0, i32 2
  %47 = load ptr, ptr %46, align 8, !tbaa !65
  store ptr %47, ptr %5, align 8, !tbaa !62
  br label %24, !llvm.loop !66

48:                                               ; preds = %27
  call void @llvm.lifetime.start.p0(i64 8, ptr %6) #15
  %49 = load ptr, ptr %3, align 8, !tbaa !20
  %50 = getelementptr inbounds nuw %struct.lua_State, ptr %49, i32 0, i32 14
  %51 = load ptr, ptr %50, align 8, !tbaa !67
  store ptr %51, ptr %6, align 8, !tbaa !45
  br label %52

52:                                               ; preds = %102, %48
  %53 = load ptr, ptr %6, align 8, !tbaa !45
  %54 = load ptr, ptr %3, align 8, !tbaa !20
  %55 = getelementptr inbounds nuw %struct.lua_State, ptr %54, i32 0, i32 10
  %56 = load ptr, ptr %55, align 8, !tbaa !35
  %57 = icmp ule ptr %53, %56
  br i1 %57, label %59, label %58

58:                                               ; preds = %52
  call void @llvm.lifetime.end.p0(i64 8, ptr %6) #15
  br label %105

59:                                               ; preds = %52
  %60 = load ptr, ptr %6, align 8, !tbaa !45
  %61 = getelementptr inbounds nuw %struct.CallInfo, ptr %60, i32 0, i32 2
  %62 = load ptr, ptr %61, align 8, !tbaa !50
  %63 = load ptr, ptr %4, align 8, !tbaa !53
  %64 = ptrtoint ptr %62 to i64
  %65 = ptrtoint ptr %63 to i64
  %66 = sub i64 %64, %65
  %67 = sdiv exact i64 %66, 16
  %68 = load ptr, ptr %3, align 8, !tbaa !20
  %69 = getelementptr inbounds nuw %struct.lua_State, ptr %68, i32 0, i32 12
  %70 = load ptr, ptr %69, align 8, !tbaa !52
  %71 = getelementptr inbounds %struct.lua_TValue, ptr %70, i64 %67
  %72 = load ptr, ptr %6, align 8, !tbaa !45
  %73 = getelementptr inbounds nuw %struct.CallInfo, ptr %72, i32 0, i32 2
  store ptr %71, ptr %73, align 8, !tbaa !50
  %74 = load ptr, ptr %6, align 8, !tbaa !45
  %75 = getelementptr inbounds nuw %struct.CallInfo, ptr %74, i32 0, i32 0
  %76 = load ptr, ptr %75, align 8, !tbaa !46
  %77 = load ptr, ptr %4, align 8, !tbaa !53
  %78 = ptrtoint ptr %76 to i64
  %79 = ptrtoint ptr %77 to i64
  %80 = sub i64 %78, %79
  %81 = sdiv exact i64 %80, 16
  %82 = load ptr, ptr %3, align 8, !tbaa !20
  %83 = getelementptr inbounds nuw %struct.lua_State, ptr %82, i32 0, i32 12
  %84 = load ptr, ptr %83, align 8, !tbaa !52
  %85 = getelementptr inbounds %struct.lua_TValue, ptr %84, i64 %81
  %86 = load ptr, ptr %6, align 8, !tbaa !45
  %87 = getelementptr inbounds nuw %struct.CallInfo, ptr %86, i32 0, i32 0
  store ptr %85, ptr %87, align 8, !tbaa !46
  %88 = load ptr, ptr %6, align 8, !tbaa !45
  %89 = getelementptr inbounds nuw %struct.CallInfo, ptr %88, i32 0, i32 1
  %90 = load ptr, ptr %89, align 8, !tbaa !68
  %91 = load ptr, ptr %4, align 8, !tbaa !53
  %92 = ptrtoint ptr %90 to i64
  %93 = ptrtoint ptr %91 to i64
  %94 = sub i64 %92, %93
  %95 = sdiv exact i64 %94, 16
  %96 = load ptr, ptr %3, align 8, !tbaa !20
  %97 = getelementptr inbounds nuw %struct.lua_State, ptr %96, i32 0, i32 12
  %98 = load ptr, ptr %97, align 8, !tbaa !52
  %99 = getelementptr inbounds %struct.lua_TValue, ptr %98, i64 %95
  %100 = load ptr, ptr %6, align 8, !tbaa !45
  %101 = getelementptr inbounds nuw %struct.CallInfo, ptr %100, i32 0, i32 1
  store ptr %99, ptr %101, align 8, !tbaa !68
  br label %102

102:                                              ; preds = %59
  %103 = load ptr, ptr %6, align 8, !tbaa !45
  %104 = getelementptr inbounds nuw %struct.CallInfo, ptr %103, i32 1
  store ptr %104, ptr %6, align 8, !tbaa !45
  br label %52, !llvm.loop !69

105:                                              ; preds = %58
  %106 = load ptr, ptr %3, align 8, !tbaa !20
  %107 = getelementptr inbounds nuw %struct.lua_State, ptr %106, i32 0, i32 8
  %108 = load ptr, ptr %107, align 8, !tbaa !49
  %109 = load ptr, ptr %4, align 8, !tbaa !53
  %110 = ptrtoint ptr %108 to i64
  %111 = ptrtoint ptr %109 to i64
  %112 = sub i64 %110, %111
  %113 = sdiv exact i64 %112, 16
  %114 = load ptr, ptr %3, align 8, !tbaa !20
  %115 = getelementptr inbounds nuw %struct.lua_State, ptr %114, i32 0, i32 12
  %116 = load ptr, ptr %115, align 8, !tbaa !52
  %117 = getelementptr inbounds %struct.lua_TValue, ptr %116, i64 %113
  %118 = load ptr, ptr %3, align 8, !tbaa !20
  %119 = getelementptr inbounds nuw %struct.lua_State, ptr %118, i32 0, i32 8
  store ptr %117, ptr %119, align 8, !tbaa !49
  ret void
}

; Function Attrs: alwaysinline mustprogress nounwind uwtable
define linkonce_odr dso_local noundef zeroext i1 @_ZNK4Luau6FValueIbEcvbEv(ptr noundef nonnull align 8 dereferenceable(24) %0) #9 comdat align 2 {
  %2 = alloca ptr, align 8
  store ptr %0, ptr %2, align 8, !tbaa !4
  %3 = load ptr, ptr %2, align 8
  %4 = getelementptr inbounds nuw %"struct.Luau::FValue", ptr %3, i32 0, i32 0
  %5 = load i8, ptr %4, align 8, !tbaa !15, !range !13, !noundef !14
  %6 = trunc i8 %5 to i1
  ret i1 %6
}

; Function Attrs: mustprogress uwtable
define hidden void @_Z17luaD_reallocstackP9lua_Stateii(ptr noundef %0, i32 noundef %1, i32 noundef %2) #2 {
  %4 = alloca ptr, align 8
  %5 = alloca i32, align 4
  %6 = alloca i32, align 4
  %7 = alloca ptr, align 8
  %8 = alloca ptr, align 8
  %9 = alloca i32, align 4
  %10 = alloca ptr, align 8
  %11 = alloca i32, align 4
  store ptr %0, ptr %4, align 8, !tbaa !20
  store i32 %1, ptr %5, align 4, !tbaa !23
  store i32 %2, ptr %6, align 4, !tbaa !23
  %12 = call noundef zeroext i1 @_ZNK4Luau6FValueIbEcvbEv(ptr noundef nonnull align 8 dereferenceable(24) @_ZN6DFFlag14LuauStackLimitE)
  br i1 %12, label %13, label %41

13:                                               ; preds = %3
  %14 = load i32, ptr %5, align 4, !tbaa !23
  %15 = icmp sgt i32 %14, 67108864
  br i1 %15, label %16, label %41

16:                                               ; preds = %13
  %17 = call noundef zeroext i1 @_ZNK4Luau6FValueIbEcvbEv(ptr noundef nonnull align 8 dereferenceable(24) @_ZN6DFFlag19LuauPopIncompleteCiE)
  br i1 %17, label %18, label %39

18:                                               ; preds = %16
  %19 = load i32, ptr %6, align 4, !tbaa !23
  %20 = icmp ne i32 %19, 0
  br i1 %20, label %21, label %39

21:                                               ; preds = %18
  call void @llvm.lifetime.start.p0(i64 8, ptr %7) #15
  %22 = load ptr, ptr %4, align 8, !tbaa !20
  %23 = getelementptr inbounds nuw %struct.lua_State, ptr %22, i32 0, i32 10
  %24 = load ptr, ptr %23, align 8, !tbaa !35
  %25 = getelementptr inbounds %struct.CallInfo, ptr %24, i64 -1
  store ptr %25, ptr %7, align 8, !tbaa !45
  %26 = load ptr, ptr %7, align 8, !tbaa !45
  %27 = load ptr, ptr %4, align 8, !tbaa !20
  %28 = getelementptr inbounds nuw %struct.lua_State, ptr %27, i32 0, i32 10
  store ptr %26, ptr %28, align 8, !tbaa !35
  %29 = load ptr, ptr %7, align 8, !tbaa !45
  %30 = getelementptr inbounds nuw %struct.CallInfo, ptr %29, i32 0, i32 0
  %31 = load ptr, ptr %30, align 8, !tbaa !46
  %32 = load ptr, ptr %4, align 8, !tbaa !20
  %33 = getelementptr inbounds nuw %struct.lua_State, ptr %32, i32 0, i32 8
  store ptr %31, ptr %33, align 8, !tbaa !49
  %34 = load ptr, ptr %7, align 8, !tbaa !45
  %35 = getelementptr inbounds nuw %struct.CallInfo, ptr %34, i32 0, i32 2
  %36 = load ptr, ptr %35, align 8, !tbaa !50
  %37 = load ptr, ptr %4, align 8, !tbaa !20
  %38 = getelementptr inbounds nuw %struct.lua_State, ptr %37, i32 0, i32 7
  store ptr %36, ptr %38, align 8, !tbaa !51
  call void @llvm.lifetime.end.p0(i64 8, ptr %7) #15
  br label %39

39:                                               ; preds = %21, %18, %16
  %40 = load ptr, ptr %4, align 8, !tbaa !20
  call void @_Z10luaD_throwP9lua_Statei(ptr noundef %40, i32 noundef 4) #17
  unreachable

41:                                               ; preds = %13, %3
  call void @llvm.lifetime.start.p0(i64 8, ptr %8) #15
  %42 = load ptr, ptr %4, align 8, !tbaa !20
  %43 = getelementptr inbounds nuw %struct.lua_State, ptr %42, i32 0, i32 12
  %44 = load ptr, ptr %43, align 8, !tbaa !52
  store ptr %44, ptr %8, align 8, !tbaa !53
  call void @llvm.lifetime.start.p0(i64 4, ptr %9) #15
  %45 = load i32, ptr %5, align 4, !tbaa !23
  %46 = add nsw i32 %45, 5
  store i32 %46, ptr %9, align 4, !tbaa !23
  %47 = load ptr, ptr %4, align 8, !tbaa !20
  %48 = load ptr, ptr %4, align 8, !tbaa !20
  %49 = getelementptr inbounds nuw %struct.lua_State, ptr %48, i32 0, i32 12
  %50 = load ptr, ptr %49, align 8, !tbaa !52
  %51 = load ptr, ptr %4, align 8, !tbaa !20
  %52 = getelementptr inbounds nuw %struct.lua_State, ptr %51, i32 0, i32 15
  %53 = load i32, ptr %52, align 8, !tbaa !54
  %54 = sext i32 %53 to i64
  %55 = mul i64 %54, 16
  %56 = load i32, ptr %9, align 4, !tbaa !23
  %57 = sext i32 %56 to i64
  %58 = icmp ule i64 %57, 1152921504606846975
  br i1 %58, label %59, label %63

59:                                               ; preds = %41
  %60 = load i32, ptr %9, align 4, !tbaa !23
  %61 = sext i32 %60 to i64
  %62 = mul i64 %61, 16
  br label %66

63:                                               ; preds = %41
  %64 = load ptr, ptr %4, align 8, !tbaa !20
  call void @_Z11luaM_toobigP9lua_State(ptr noundef %64) #17
  unreachable

65:                                               ; No predecessors!
  br label %66

66:                                               ; preds = %65, %59
  %67 = phi i64 [ %62, %59 ], [ -1, %65 ]
  %68 = load ptr, ptr %4, align 8, !tbaa !20
  %69 = getelementptr inbounds nuw %struct.lua_State, ptr %68, i32 0, i32 2
  %70 = load i8, ptr %69, align 2, !tbaa !55
  %71 = call noundef ptr @_Z13luaM_realloc_P9lua_StatePvmmh(ptr noundef %47, ptr noundef %50, i64 noundef %55, i64 noundef %67, i8 noundef zeroext %70)
  %72 = load ptr, ptr %4, align 8, !tbaa !20
  %73 = getelementptr inbounds nuw %struct.lua_State, ptr %72, i32 0, i32 12
  store ptr %71, ptr %73, align 8, !tbaa !52
  call void @llvm.lifetime.start.p0(i64 8, ptr %10) #15
  %74 = load ptr, ptr %4, align 8, !tbaa !20
  %75 = getelementptr inbounds nuw %struct.lua_State, ptr %74, i32 0, i32 12
  %76 = load ptr, ptr %75, align 8, !tbaa !52
  store ptr %76, ptr %10, align 8, !tbaa !53
  call void @llvm.lifetime.start.p0(i64 4, ptr %11) #15
  %77 = load ptr, ptr %4, align 8, !tbaa !20
  %78 = getelementptr inbounds nuw %struct.lua_State, ptr %77, i32 0, i32 15
  %79 = load i32, ptr %78, align 8, !tbaa !54
  store i32 %79, ptr %11, align 4, !tbaa !23
  br label %80

80:                                               ; preds = %91, %66
  %81 = load i32, ptr %11, align 4, !tbaa !23
  %82 = load i32, ptr %9, align 4, !tbaa !23
  %83 = icmp slt i32 %81, %82
  br i1 %83, label %85, label %84

84:                                               ; preds = %80
  call void @llvm.lifetime.end.p0(i64 4, ptr %11) #15
  br label %94

85:                                               ; preds = %80
  %86 = load ptr, ptr %10, align 8, !tbaa !53
  %87 = load i32, ptr %11, align 4, !tbaa !23
  %88 = sext i32 %87 to i64
  %89 = getelementptr inbounds %struct.lua_TValue, ptr %86, i64 %88
  %90 = getelementptr inbounds nuw %struct.lua_TValue, ptr %89, i32 0, i32 2
  store i32 0, ptr %90, align 4, !tbaa !56
  br label %91

91:                                               ; preds = %85
  %92 = load i32, ptr %11, align 4, !tbaa !23
  %93 = add nsw i32 %92, 1
  store i32 %93, ptr %11, align 4, !tbaa !23
  br label %80, !llvm.loop !58

94:                                               ; preds = %84
  %95 = load i32, ptr %9, align 4, !tbaa !23
  %96 = load ptr, ptr %4, align 8, !tbaa !20
  %97 = getelementptr inbounds nuw %struct.lua_State, ptr %96, i32 0, i32 15
  store i32 %95, ptr %97, align 8, !tbaa !54
  %98 = load ptr, ptr %10, align 8, !tbaa !53
  %99 = load i32, ptr %5, align 4, !tbaa !23
  %100 = sext i32 %99 to i64
  %101 = getelementptr inbounds %struct.lua_TValue, ptr %98, i64 %100
  %102 = load ptr, ptr %4, align 8, !tbaa !20
  %103 = getelementptr inbounds nuw %struct.lua_State, ptr %102, i32 0, i32 11
  store ptr %101, ptr %103, align 8, !tbaa !60
  %104 = load ptr, ptr %4, align 8, !tbaa !20
  %105 = load ptr, ptr %8, align 8, !tbaa !53
  call void @_ZL12correctstackP9lua_StateP10lua_TValue(ptr noundef %104, ptr noundef %105)
  call void @llvm.lifetime.end.p0(i64 8, ptr %10) #15
  call void @llvm.lifetime.end.p0(i64 4, ptr %9) #15
  call void @llvm.lifetime.end.p0(i64 8, ptr %8) #15
  ret void
}