; Function Attrs: mustprogress uwtable
define hidden void @_Z17luaD_reallocstackP9lua_Stateii(ptr noundef %0, i32 noundef %1, i32 noundef %2) local_unnamed_addr #0 {
  %4 = load i8, ptr @_ZN6DFFlag14LuauStackLimitE, align 8, !tbaa !15, !range !20, !noundef !21
  %5 = trunc nuw i8 %4 to i1
  %6 = icmp sgt i32 %1, 67108864
  %or.cond = and i1 %6, %5
  br i1 %or.cond, label %7, label %21

7:                                                ; preds = %3
  %8 = load i8, ptr @_ZN6DFFlag19LuauPopIncompleteCiE, align 8, !tbaa !15, !range !20, !noundef !21
  %9 = trunc nuw i8 %8 to i1
  %10 = icmp ne i32 %2, 0
  %or.cond3 = and i1 %10, %9
  br i1 %or.cond3, label %11, label %20

11:                                               ; preds = %7
  %12 = getelementptr inbounds nuw i8, ptr %0, i64 32
  %13 = load ptr, ptr %12, align 8, !tbaa !22
  %14 = getelementptr inbounds i8, ptr %13, i64 -40
  store ptr %14, ptr %12, align 8, !tbaa !22
  %15 = load ptr, ptr %14, align 8, !tbaa !32
  %16 = getelementptr inbounds nuw i8, ptr %0, i64 16
  store ptr %15, ptr %16, align 8, !tbaa !35
  %17 = getelementptr inbounds i8, ptr %13, i64 -24
  %18 = load ptr, ptr %17, align 8, !tbaa !36
  %19 = getelementptr inbounds nuw i8, ptr %0, i64 8
  store ptr %18, ptr %19, align 8, !tbaa !37
  br label %20

20:                                               ; preds = %11, %7
  tail call void @_Z10luaD_throwP9lua_Statei(ptr noundef %0, i32 noundef 4) #18
  unreachable

21:                                               ; preds = %3
  %22 = getelementptr inbounds nuw i8, ptr %0, i64 48
  %23 = load ptr, ptr %22, align 8, !tbaa !38
  %24 = add i32 %1, 5
  %25 = getelementptr inbounds nuw i8, ptr %0, i64 72
  %26 = icmp sgt i32 %1, -6
  br i1 %26, label %27, label %39

27:                                               ; preds = %21
  %28 = zext nneg i32 %24 to i64
  %29 = load i32, ptr %25, align 8, !tbaa !39
  %30 = sext i32 %29 to i64
  %31 = shl nsw i64 %30, 4
  %32 = shl nuw nsw i64 %28, 4
  %33 = getelementptr inbounds nuw i8, ptr %0, i64 2
  %34 = load i8, ptr %33, align 2, !tbaa !40
  %35 = tail call noundef ptr @_Z13luaM_realloc_P9lua_StatePvmmh(ptr noundef nonnull %0, ptr noundef %23, i64 noundef %31, i64 noundef %32, i8 noundef zeroext %34)
  store ptr %35, ptr %22, align 8, !tbaa !38
  %36 = load i32, ptr %25, align 8, !tbaa !39
  %37 = icmp slt i32 %36, %24
  br i1 %37, label %.lr.ph.preheader, label %._crit_edge

.lr.ph.preheader:                                 ; preds = %27
  %38 = sext i32 %36 to i64
  %wide.trip.count = sext i32 %24 to i64
  br label %.lr.ph

39:                                               ; preds = %21
  tail call void @_Z11luaM_toobigP9lua_State(ptr noundef nonnull %0) #18
  unreachable

._crit_edge:                                      ; preds = %.lr.ph, %27
  store i32 %24, ptr %25, align 8, !tbaa !39
  %40 = sext i32 %1 to i64
  %41 = getelementptr inbounds %struct.lua_TValue, ptr %35, i64 %40
  %42 = getelementptr inbounds nuw i8, ptr %0, i64 40
  store ptr %41, ptr %42, align 8, !tbaa !41
  %43 = getelementptr inbounds nuw i8, ptr %0, i64 8
  %44 = load ptr, ptr %43, align 8, !tbaa !37
  %45 = ptrtoint ptr %44 to i64
  %46 = ptrtoint ptr %23 to i64
  %47 = sub i64 %45, %46
  %48 = getelementptr inbounds i8, ptr %35, i64 %47
  store ptr %48, ptr %43, align 8, !tbaa !37
  %49 = getelementptr inbounds nuw i8, ptr %0, i64 96
  %.03133.i = load ptr, ptr %49, align 8, !tbaa !42
  %.not34.i = icmp eq ptr %.03133.i, null
  br i1 %.not34.i, label %._crit_edge.i, label %.lr.ph.i

._crit_edge.i:                                    ; preds = %.lr.ph.i, %._crit_edge
  %50 = getelementptr inbounds nuw i8, ptr %0, i64 64
  %51 = load ptr, ptr %50, align 8, !tbaa !43
  %52 = getelementptr inbounds nuw i8, ptr %0, i64 32
  %53 = load ptr, ptr %52, align 8, !tbaa !22
  %.not3236.i = icmp ugt ptr %51, %53
  br i1 %.not3236.i, label %_ZL12correctstackP9lua_StateP10lua_TValue.exit, label %.lr.ph39.i

.lr.ph.i:                                         ; preds = %._crit_edge, %.lr.ph.i
  %.03135.i = phi ptr [ %.031.i, %.lr.ph.i ], [ %.03133.i, %._crit_edge ]
  %54 = getelementptr inbounds nuw i8, ptr %.03135.i, i64 8
  %55 = load ptr, ptr %54, align 8, !tbaa !44
  %56 = ptrtoint ptr %55 to i64
  %57 = sub i64 %56, %46
  %58 = getelementptr inbounds i8, ptr %35, i64 %57
  store ptr %58, ptr %54, align 8, !tbaa !44
  %59 = getelementptr inbounds nuw i8, ptr %.03135.i, i64 32
  %.031.i = load ptr, ptr %59, align 8, !tbaa !42
  %.not.i = icmp eq ptr %.031.i, null
  br i1 %.not.i, label %._crit_edge.i, label %.lr.ph.i, !llvm.loop !46

.lr.ph39.i:                                       ; preds = %._crit_edge.i, %.lr.ph39.i
  %.037.i = phi ptr [ %74, %.lr.ph39.i ], [ %51, %._crit_edge.i ]
  %60 = getelementptr inbounds nuw i8, ptr %.037.i, i64 16
  %61 = load ptr, ptr %60, align 8, !tbaa !36
  %62 = ptrtoint ptr %61 to i64
  %63 = sub i64 %62, %46
  %64 = getelementptr inbounds i8, ptr %35, i64 %63
  store ptr %64, ptr %60, align 8, !tbaa !36
  %65 = load ptr, ptr %.037.i, align 8, !tbaa !32
  %66 = ptrtoint ptr %65 to i64
  %67 = sub i64 %66, %46
  %68 = getelementptr inbounds i8, ptr %35, i64 %67
  store ptr %68, ptr %.037.i, align 8, !tbaa !32
  %69 = getelementptr inbounds nuw i8, ptr %.037.i, i64 8
  %70 = load ptr, ptr %69, align 8, !tbaa !48
  %71 = ptrtoint ptr %70 to i64
  %72 = sub i64 %71, %46
  %73 = getelementptr inbounds i8, ptr %35, i64 %72
  store ptr %73, ptr %69, align 8, !tbaa !48
  %74 = getelementptr inbounds nuw i8, ptr %.037.i, i64 40
  %.not32.i = icmp ugt ptr %74, %53
  br i1 %.not32.i, label %_ZL12correctstackP9lua_StateP10lua_TValue.exit, label %.lr.ph39.i, !llvm.loop !49

_ZL12correctstackP9lua_StateP10lua_TValue.exit:   ; preds = %.lr.ph39.i, %._crit_edge.i
  %75 = getelementptr inbounds nuw i8, ptr %0, i64 16
  %76 = load ptr, ptr %75, align 8, !tbaa !35
  %77 = ptrtoint ptr %76 to i64
  %78 = sub i64 %77, %46
  %79 = getelementptr inbounds i8, ptr %35, i64 %78
  store ptr %79, ptr %75, align 8, !tbaa !35
  ret void

.lr.ph:                                           ; preds = %.lr.ph.preheader, %.lr.ph
  %indvars.iv = phi i64 [ %38, %.lr.ph.preheader ], [ %indvars.iv.next, %.lr.ph ]
  %80 = getelementptr inbounds %struct.lua_TValue, ptr %35, i64 %indvars.iv, i32 2
  store i32 0, ptr %80, align 4, !tbaa !50
  %indvars.iv.next = add nsw i64 %indvars.iv, 1
  %exitcond.not = icmp eq i64 %indvars.iv.next, %wide.trip.count
  br i1 %exitcond.not, label %._crit_edge, label %.lr.ph, !llvm.loop !52
}